; ModuleID = '45/746.c'
source_filename = "45/746.c"
target datalayout = "e-m:e-p270:32:32-p271:32:32-p272:64:64-i64:64-f80:128-n8:16:32:64-S128"
target triple = "x86_64-pc-linux-gnu"

@.str = private unnamed_addr constant [3 x i8] c"%s\00", align 1
@.str.1 = private unnamed_addr constant [3 x i8] c"%d\00", align 1

; Function Attrs: noinline nounwind uwtable
define dso_local void @main() #0 {
  %1 = alloca i8**, align 8
  %2 = alloca i32, align 4
  %3 = alloca i32, align 4
  %4 = alloca i32, align 4
  %5 = alloca i32, align 4
  %6 = alloca i32, align 4
  store i32 0, i32* %4, align 4
  %7 = call noalias i8* @malloc(i64 16) #4
  %8 = bitcast i8* %7 to i8**
  store i8** %8, i8*** %1, align 8
  %9 = call noalias i8* @malloc(i64 5) #4
  %10 = load i8**, i8*** %1, align 8
  %11 = getelementptr inbounds i8*, i8** %10, i64 0
  store i8* %9, i8** %11, align 8
  %12 = call noalias i8* @malloc(i64 50) #4
  %13 = load i8**, i8*** %1, align 8
  %14 = getelementptr inbounds i8*, i8** %13, i64 1
  store i8* %12, i8** %14, align 8
  %15 = load i8**, i8*** %1, align 8
  %16 = getelementptr inbounds i8*, i8** %15, i64 0
  %17 = load i8*, i8** %16, align 8
  %18 = call i32 (i8*, ...) @__isoc99_scanf(i8* getelementptr inbounds ([3 x i8], [3 x i8]* @.str, i64 0, i64 0), i8* %17)
  %19 = load i8**, i8*** %1, align 8
  %20 = getelementptr inbounds i8*, i8** %19, i64 1
  %21 = load i8*, i8** %20, align 8
  %22 = call i32 (i8*, ...) @__isoc99_scanf(i8* getelementptr inbounds ([3 x i8], [3 x i8]* @.str, i64 0, i64 0), i8* %21)
  %23 = load i8**, i8*** %1, align 8
  %24 = getelementptr inbounds i8*, i8** %23, i64 0
  %25 = load i8*, i8** %24, align 8
  %26 = call i64 @strlen(i8* %25) #5
  %27 = trunc i64 %26 to i32
  store i32 %27, i32* %5, align 4
  %28 = load i8**, i8*** %1, align 8
  %29 = getelementptr inbounds i8*, i8** %28, i64 1
  %30 = load i8*, i8** %29, align 8
  %31 = call i64 @strlen(i8* %30) #5
  %32 = trunc i64 %31 to i32
  store i32 %32, i32* %6, align 4
  store i32 0, i32* %2, align 4
  br label %33

33:                                               ; preds = %75, %0
  %34 = load i32, i32* %2, align 4
  %35 = load i32, i32* %6, align 4
  %36 = load i32, i32* %5, align 4
  %37 = sub nsw i32 %35, %36
  %38 = icmp slt i32 %34, %37
  br i1 %38, label %39, label %78

39:                                               ; preds = %33
  store i32 0, i32* %3, align 4
  br label %40

40:                                               ; preds = %66, %39
  %41 = load i32, i32* %3, align 4
  %42 = load i32, i32* %5, align 4
  %43 = icmp slt i32 %41, %42
  br i1 %43, label %44, label %69

44:                                               ; preds = %40
  %45 = load i8**, i8*** %1, align 8
  %46 = getelementptr inbounds i8*, i8** %45, i64 0
  %47 = load i8*, i8** %46, align 8
  %48 = load i32, i32* %3, align 4
  %49 = sext i32 %48 to i64
  %50 = getelementptr inbounds i8, i8* %47, i64 %49
  %51 = load i8, i8* %50, align 1
  %52 = sext i8 %51 to i32
  %53 = load i8**, i8*** %1, align 8
  %54 = getelementptr inbounds i8*, i8** %53, i64 1
  %55 = load i8*, i8** %54, align 8
  %56 = load i32, i32* %3, align 4
  %57 = load i32, i32* %2, align 4
  %58 = add nsw i32 %56, %57
  %59 = sext i32 %58 to i64
  %60 = getelementptr inbounds i8, i8* %55, i64 %59
  %61 = load i8, i8* %60, align 1
  %62 = sext i8 %61 to i32
  %63 = icmp ne i32 %52, %62
  br i1 %63, label %64, label %65

64:                                               ; preds = %44
  br label %69

65:                                               ; preds = %44
  br label %66

66:                                               ; preds = %65
  %67 = load i32, i32* %3, align 4
  %68 = add nsw i32 %67, 1
  store i32 %68, i32* %3, align 4
  br label %40

69:                                               ; preds = %64, %40
  %70 = load i32, i32* %3, align 4
  %71 = load i32, i32* %5, align 4
  %72 = icmp eq i32 %70, %71
  br i1 %72, label %73, label %74

73:                                               ; preds = %69
  br label %78

74:                                               ; preds = %69
  br label %75

75:                                               ; preds = %74
  %76 = load i32, i32* %2, align 4
  %77 = add nsw i32 %76, 1
  store i32 %77, i32* %2, align 4
  br label %33

78:                                               ; preds = %73, %33
  %79 = load i32, i32* %2, align 4
  %80 = call i32 (i8*, ...) @printf(i8* getelementptr inbounds ([3 x i8], [3 x i8]* @.str.1, i64 0, i64 0), i32 %79)
  ret void
}

; Function Attrs: nounwind
declare dso_local noalias i8* @malloc(i64) #1

declare dso_local i32 @__isoc99_scanf(i8*, ...) #2

; Function Attrs: nounwind readonly
declare dso_local i64 @strlen(i8*) #3

declare dso_local i32 @printf(i8*, ...) #2


!llvm.module.flags = !{!0}
!llvm.ident = !{!1}

!0 = !{i32 1, !"wchar_size", i32 4}
!1 = !{!"clang version 10.0.0-4ubuntu1 "}
